target datalayout = "e-m:e-p270:32:32-p271:32:32-p272:64:64-i64:64-i128:128-f80:128-n8:16:32:64-S128"
target triple = "x86_64-pc-linux-gnu"

%struct._stat_tap_ui = type { i32, ptr, ptr, ptr, i64, ptr }

@.str = private unnamed_addr constant [6 x i8] c"CAMEL\00", align 1

; Function Attrs: null_pointer_is_valid sspstrong uwtable
define hidden zeroext i1 @register_srt_tables(ptr noundef %0, ptr noundef %1, ptr noundef %2) #0 {
  %4 = alloca i1, align 1
  %5 = alloca ptr, align 8
  %6 = alloca ptr, align 8
  %7 = alloca ptr, align 8
  %8 = alloca ptr, align 8
  %9 = alloca ptr, align 8
  %10 = alloca %struct._stat_tap_ui, align 8
  %11 = alloca ptr, align 8
  %12 = alloca i32, align 4
  store ptr %0, ptr %5, align 8
  store ptr %1, ptr %6, align 8
  store ptr %2, ptr %7, align 8
  call void @llvm.lifetime.start.p0(i64 8, ptr %8) #8
  %13 = load ptr, ptr %6, align 8
  store ptr %13, ptr %8, align 8
  call void @llvm.lifetime.start.p0(i64 8, ptr %9) #8
  %14 = load ptr, ptr %8, align 8
  %15 = call i32 @get_srt_proto_id(ptr noundef %14)
  %16 = call ptr @find_protocol_by_id(i32 noundef %15)
  %17 = call ptr @proto_get_protocol_short_name(ptr noundef %16)
  store ptr %17, ptr %9, align 8
  call void @llvm.lifetime.start.p0(i64 48, ptr %10) #8
  call void @llvm.lifetime.start.p0(i64 8, ptr %11) #8
  %18 = load ptr, ptr %9, align 8
  %19 = call i32 @strcmp(ptr noundef %18, ptr noundef @.str) #9
  %20 = icmp eq i32 %19, 0
  br i1 %20, label %21, label %22

21:                                               ; preds = %3
  store i1 false, ptr %4, align 1
  store i32 1, ptr %12, align 4
  br label %34

22:                                               ; preds = %3
  %23 = load ptr, ptr %8, align 8
  %24 = call ptr @srt_table_get_tap_string(ptr noundef %23)
  store ptr %24, ptr %11, align 8
  %25 = getelementptr inbounds nuw %struct._stat_tap_ui, ptr %10, i32 0, i32 0
  store i32 6, ptr %25, align 8
  %26 = getelementptr inbounds nuw %struct._stat_tap_ui, ptr %10, i32 0, i32 1
  store ptr null, ptr %26, align 8
  %27 = load ptr, ptr %11, align 8
  %28 = getelementptr inbounds nuw %struct._stat_tap_ui, ptr %10, i32 0, i32 2
  store ptr %27, ptr %28, align 8
  %29 = getelementptr inbounds nuw %struct._stat_tap_ui, ptr %10, i32 0, i32 3
  store ptr @dissector_srt_init, ptr %29, align 8
  %30 = getelementptr inbounds nuw %struct._stat_tap_ui, ptr %10, i32 0, i32 4
  store i64 0, ptr %30, align 8
  %31 = getelementptr inbounds nuw %struct._stat_tap_ui, ptr %10, i32 0, i32 5
  store ptr null, ptr %31, align 8
  %32 = load ptr, ptr %8, align 8
  call void @register_stat_tap_ui(ptr noundef %10, ptr noundef %32)
  %33 = load ptr, ptr %11, align 8
  call void @g_free(ptr noundef %33)
  store i1 false, ptr %4, align 1
  store i32 1, ptr %12, align 4
  br label %34

34:                                               ; preds = %22, %21
  call void @llvm.lifetime.end.p0(i64 8, ptr %11) #8
  call void @llvm.lifetime.end.p0(i64 48, ptr %10) #8
  call void @llvm.lifetime.end.p0(i64 8, ptr %9) #8
  call void @llvm.lifetime.end.p0(i64 8, ptr %8) #8
  %35 = load i1, ptr %4, align 1
  ret i1 %35
}