; Function Attrs: null_pointer_is_valid sspstrong uwtable
define hidden noundef zeroext i1 @register_srt_tables(ptr noundef readnone captures(none) %0, ptr noundef %1, ptr noundef readnone captures(none) %2) local_unnamed_addr #0 {
  %4 = alloca %struct._stat_tap_ui, align 8
  %5 = tail call i32 @get_srt_proto_id(ptr noundef %1)
  %6 = tail call ptr @find_protocol_by_id(i32 noundef %5)
  %7 = tail call ptr @proto_get_protocol_short_name(ptr noundef %6)
  call void @llvm.lifetime.start.p0(i64 48, ptr nonnull %4) #7
  %8 = tail call i32 @strcmp(ptr noundef %7, ptr noundef nonnull dereferenceable(6) @.str) #8
  %9 = icmp eq i32 %8, 0
  br i1 %9, label %16, label %10

10:                                               ; preds = %3
  %11 = tail call ptr @srt_table_get_tap_string(ptr noundef %1)
  store i32 6, ptr %4, align 8
  %12 = getelementptr inbounds nuw i8, ptr %4, i64 8
  store ptr null, ptr %12, align 8
  %13 = getelementptr inbounds nuw i8, ptr %4, i64 16
  store ptr %11, ptr %13, align 8
  %14 = getelementptr inbounds nuw i8, ptr %4, i64 24
  store ptr @dissector_srt_init, ptr %14, align 8
  %15 = getelementptr inbounds nuw i8, ptr %4, i64 32
  call void @llvm.memset.p0.i64(ptr noundef nonnull align 8 dereferenceable(16) %15, i8 0, i64 16, i1 false)
  call void @register_stat_tap_ui(ptr noundef nonnull %4, ptr noundef %1)
  call void @g_free(ptr noundef %11)
  br label %16

16:                                               ; preds = %3, %10
  call void @llvm.lifetime.end.p0(i64 48, ptr nonnull %4) #7
  ret i1 false
}